; Function Attrs: nounwind uwtable
define void @glfwSetWindowOpacity(ptr noundef %0, float noundef %1) local_unnamed_addr #0 {
  %3 = load i32, ptr @_glfw, align 8, !tbaa !138
  %.not = icmp eq i32 %3, 0
  br i1 %.not, label %4, label %5

4:                                                ; preds = %2
  tail call void (i32, ptr, ...) @_glfwInputError(i32 noundef 65537, ptr noundef null) #7
  br label %11

5:                                                ; preds = %2
  %or.cond = fcmp ult float %1, 0.000000e+00
  %6 = fcmp ogt float %1, 1.000000e+00
  %or.cond3 = or i1 %or.cond, %6
  br i1 %or.cond3, label %7, label %9

7:                                                ; preds = %5
  %8 = fpext float %1 to double
  tail call void (i32, ptr, ...) @_glfwInputError(i32 noundef 65540, ptr noundef nonnull @.str.8, double noundef %8) #7
  br label %11

9:                                                ; preds = %5
  %10 = load ptr, ptr getelementptr inbounds nuw (i8, ptr @_glfw, i64 520), align 8, !tbaa !245
  tail call void %10(ptr noundef %0, float noundef %1) #7
  br label %11

11:                                               ; preds = %9, %7, %4
  ret void
}